target datalayout = "e-m:e-p270:32:32-p271:32:32-p272:64:64-i64:64-i128:128-f80:128-n8:16:32:64-S128"
target triple = "x86_64-pc-linux-gnu"

%struct.Vec_Int_t_ = type { i32, i32, ptr }
%struct.Vec_Wrd_t_ = type { i32, i32, ptr }

@.str.27 = private unnamed_addr constant [2 x i8] c"\0A\00", align 1
@.str.40 = private unnamed_addr constant [7 x i8] c"    : \00", align 1
@.str.41 = private unnamed_addr constant [3 x i8] c"%d\00", align 1
@.str.46 = private unnamed_addr constant [7 x i8] c"%3d : \00", align 1
@.str.47 = private unnamed_addr constant [3 x i8] c"%c\00", align 1

; Function Attrs: nounwind uwtable
define internal i32 @Abc_TtGetBit(ptr noundef %0, i32 noundef %1) #0 {
  %3 = alloca ptr, align 8
  %4 = alloca i32, align 4
  store ptr %0, ptr %3, align 8
  store i32 %1, ptr %4, align 4
  %5 = load ptr, ptr %3, align 8
  %6 = load i32, ptr %4, align 4
  %7 = ashr i32 %6, 6
  %8 = sext i32 %7 to i64
  %9 = getelementptr inbounds i64, ptr %5, i64 %8
  %10 = load i64, ptr %9, align 8
  %11 = load i32, ptr %4, align 4
  %12 = and i32 %11, 63
  %13 = zext i32 %12 to i64
  %14 = lshr i64 %10, %13
  %15 = trunc i64 %14 to i32
  %16 = and i32 %15, 1
  ret i32 %16
}

; Function Attrs: nounwind uwtable
define internal ptr @Vec_WrdEntryP(ptr noundef %0, i32 noundef %1) #0 {
  %3 = alloca ptr, align 8
  %4 = alloca i32, align 4
  store ptr %0, ptr %3, align 8
  store i32 %1, ptr %4, align 4
  %5 = load ptr, ptr %3, align 8
  %6 = getelementptr inbounds %struct.Vec_Wrd_t_, ptr %5, i32 0, i32 2
  %7 = load ptr, ptr %6, align 8
  %8 = load i32, ptr %4, align 4
  %9 = sext i32 %8 to i64
  %10 = getelementptr inbounds i64, ptr %7, i64 %9
  ret ptr %10
}

; Function Attrs: nounwind uwtable
define internal i32 @Vec_IntEntry(ptr noundef %0, i32 noundef %1) #0 {
  %3 = alloca ptr, align 8
  %4 = alloca i32, align 4
  store ptr %0, ptr %3, align 8
  store i32 %1, ptr %4, align 4
  %5 = load ptr, ptr %3, align 8
  %6 = getelementptr inbounds %struct.Vec_Int_t_, ptr %5, i32 0, i32 2
  %7 = load ptr, ptr %6, align 8
  %8 = load i32, ptr %4, align 4
  %9 = sext i32 %8 to i64
  %10 = getelementptr inbounds i32, ptr %7, i64 %9
  %11 = load i32, ptr %10, align 4
  ret i32 %11
}

; Function Attrs: nounwind uwtable
define internal i32 @Vec_IntSize(ptr noundef %0) #0 {
  %2 = alloca ptr, align 8
  store ptr %0, ptr %2, align 8
  %3 = load ptr, ptr %2, align 8
  %4 = getelementptr inbounds %struct.Vec_Int_t_, ptr %3, i32 0, i32 1
  %5 = load i32, ptr %4, align 4
  ret i32 %5
}

; Function Attrs: nounwind uwtable
define void @Acb_PrintPatterns(ptr noundef %0, i32 noundef %1, ptr noundef %2) #0 {
  %4 = alloca ptr, align 8
  %5 = alloca i32, align 4
  %6 = alloca ptr, align 8
  %7 = alloca i32, align 4
  %8 = alloca i32, align 4
  %9 = alloca i32, align 4
  %10 = alloca i32, align 4
  store ptr %0, ptr %4, align 8
  store i32 %1, ptr %5, align 4
  store ptr %2, ptr %6, align 8
  %11 = load ptr, ptr %6, align 8
  %12 = call i32 @Vec_IntSize(ptr noundef %11)
  store i32 %12, ptr %10, align 4
  %13 = call i32 (ptr, ...) @printf(ptr noundef @.str.40)
  store i32 0, ptr %7, align 4
  br label %14

14:                                               ; preds = %30, %3
  %15 = load i32, ptr %7, align 4
  %16 = load ptr, ptr %6, align 8
  %17 = call i32 @Vec_IntSize(ptr noundef %16)
  %18 = icmp slt i32 %15, %17
  br i1 %18, label %19, label %23

19:                                               ; preds = %14
  %20 = load ptr, ptr %6, align 8
  %21 = load i32, ptr %7, align 4
  %22 = call i32 @Vec_IntEntry(ptr noundef %20, i32 noundef %21)
  store i32 %22, ptr %9, align 4
  br label %23

23:                                               ; preds = %19, %14
  %24 = phi i1 [ false, %14 ], [ true, %19 ]
  br i1 %24, label %25, label %33

25:                                               ; preds = %23
  %26 = load i32, ptr %9, align 4
  %27 = sdiv i32 %26, 100
  %28 = srem i32 %27, 10
  %29 = call i32 (ptr, ...) @printf(ptr noundef @.str.41, i32 noundef %28)
  br label %30

30:                                               ; preds = %25
  %31 = load i32, ptr %7, align 4
  %32 = add nsw i32 %31, 1
  store i32 %32, ptr %7, align 4
  br label %14, !llvm.loop !84

33:                                               ; preds = %23
  %34 = call i32 (ptr, ...) @printf(ptr noundef @.str.27)
  %35 = call i32 (ptr, ...) @printf(ptr noundef @.str.40)
  store i32 0, ptr %7, align 4
  br label %36

36:                                               ; preds = %52, %33
  %37 = load i32, ptr %7, align 4
  %38 = load ptr, ptr %6, align 8
  %39 = call i32 @Vec_IntSize(ptr noundef %38)
  %40 = icmp slt i32 %37, %39
  br i1 %40, label %41, label %45

41:                                               ; preds = %36
  %42 = load ptr, ptr %6, align 8
  %43 = load i32, ptr %7, align 4
  %44 = call i32 @Vec_IntEntry(ptr noundef %42, i32 noundef %43)
  store i32 %44, ptr %9, align 4
  br label %45

45:                                               ; preds = %41, %36
  %46 = phi i1 [ false, %36 ], [ true, %41 ]
  br i1 %46, label %47, label %55

47:                                               ; preds = %45
  %48 = load i32, ptr %9, align 4
  %49 = sdiv i32 %48, 10
  %50 = srem i32 %49, 10
  %51 = call i32 (ptr, ...) @printf(ptr noundef @.str.41, i32 noundef %50)
  br label %52

52:                                               ; preds = %47
  %53 = load i32, ptr %7, align 4
  %54 = add nsw i32 %53, 1
  store i32 %54, ptr %7, align 4
  br label %36, !llvm.loop !85

55:                                               ; preds = %45
  %56 = call i32 (ptr, ...) @printf(ptr noundef @.str.27)
  %57 = call i32 (ptr, ...) @printf(ptr noundef @.str.40)
  store i32 0, ptr %7, align 4
  br label %58

58:                                               ; preds = %74, %55
  %59 = load i32, ptr %7, align 4
  %60 = load ptr, ptr %6, align 8
  %61 = call i32 @Vec_IntSize(ptr noundef %60)
  %62 = icmp slt i32 %59, %61
  br i1 %62, label %63, label %67

63:                                               ; preds = %58
  %64 = load ptr, ptr %6, align 8
  %65 = load i32, ptr %7, align 4
  %66 = call i32 @Vec_IntEntry(ptr noundef %64, i32 noundef %65)
  store i32 %66, ptr %9, align 4
  br label %67

67:                                               ; preds = %63, %58
  %68 = phi i1 [ false, %58 ], [ true, %63 ]
  br i1 %68, label %69, label %77

69:                                               ; preds = %67
  %70 = load i32, ptr %9, align 4
  %71 = sdiv i32 %70, 1
  %72 = srem i32 %71, 10
  %73 = call i32 (ptr, ...) @printf(ptr noundef @.str.41, i32 noundef %72)
  br label %74

74:                                               ; preds = %69
  %75 = load i32, ptr %7, align 4
  %76 = add nsw i32 %75, 1
  store i32 %76, ptr %7, align 4
  br label %58, !llvm.loop !86

77:                                               ; preds = %67
  %78 = call i32 (ptr, ...) @printf(ptr noundef @.str.27)
  %79 = call i32 (ptr, ...) @printf(ptr noundef @.str.27)
  %80 = call i32 (ptr, ...) @printf(ptr noundef @.str.40)
  store i32 0, ptr %7, align 4
  br label %81

81:                                               ; preds = %90, %77
  %82 = load i32, ptr %7, align 4
  %83 = load i32, ptr %10, align 4
  %84 = icmp slt i32 %82, %83
  br i1 %84, label %85, label %93

85:                                               ; preds = %81
  %86 = load i32, ptr %7, align 4
  %87 = sdiv i32 %86, 100
  %88 = srem i32 %87, 10
  %89 = call i32 (ptr, ...) @printf(ptr noundef @.str.41, i32 noundef %88)
  br label %90

90:                                               ; preds = %85
  %91 = load i32, ptr %7, align 4
  %92 = add nsw i32 %91, 1
  store i32 %92, ptr %7, align 4
  br label %81, !llvm.loop !87

93:                                               ; preds = %81
  %94 = call i32 (ptr, ...) @printf(ptr noundef @.str.27)
  %95 = call i32 (ptr, ...) @printf(ptr noundef @.str.40)
  store i32 0, ptr %7, align 4
  br label %96

96:                                               ; preds = %105, %93
  %97 = load i32, ptr %7, align 4
  %98 = load i32, ptr %10, align 4
  %99 = icmp slt i32 %97, %98
  br i1 %99, label %100, label %108

100:                                              ; preds = %96
  %101 = load i32, ptr %7, align 4
  %102 = sdiv i32 %101, 10
  %103 = srem i32 %102, 10
  %104 = call i32 (ptr, ...) @printf(ptr noundef @.str.41, i32 noundef %103)
  br label %105

105:                                              ; preds = %100
  %106 = load i32, ptr %7, align 4
  %107 = add nsw i32 %106, 1
  store i32 %107, ptr %7, align 4
  br label %96, !llvm.loop !88

108:                                              ; preds = %96
  %109 = call i32 (ptr, ...) @printf(ptr noundef @.str.27)
  %110 = call i32 (ptr, ...) @printf(ptr noundef @.str.40)
  store i32 0, ptr %7, align 4
  br label %111

111:                                              ; preds = %119, %108
  %112 = load i32, ptr %7, align 4
  %113 = load i32, ptr %10, align 4
  %114 = icmp slt i32 %112, %113
  br i1 %114, label %115, label %122

115:                                              ; preds = %111
  %116 = load i32, ptr %7, align 4
  %117 = srem i32 %116, 10
  %118 = call i32 (ptr, ...) @printf(ptr noundef @.str.41, i32 noundef %117)
  br label %119

119:                                              ; preds = %115
  %120 = load i32, ptr %7, align 4
  %121 = add nsw i32 %120, 1
  store i32 %121, ptr %7, align 4
  br label %111, !llvm.loop !89

122:                                              ; preds = %111
  %123 = call i32 (ptr, ...) @printf(ptr noundef @.str.27)
  %124 = call i32 (ptr, ...) @printf(ptr noundef @.str.27)
  store i32 0, ptr %8, align 4
  br label %125

125:                                              ; preds = %151, %122
  %126 = load i32, ptr %8, align 4
  %127 = load i32, ptr %5, align 4
  %128 = icmp slt i32 %126, %127
  br i1 %128, label %129, label %154

129:                                              ; preds = %125
  %130 = load i32, ptr %8, align 4
  %131 = call i32 (ptr, ...) @printf(ptr noundef @.str.46, i32 noundef %130)
  store i32 0, ptr %7, align 4
  br label %132

132:                                              ; preds = %146, %129
  %133 = load i32, ptr %7, align 4
  %134 = load i32, ptr %10, align 4
  %135 = icmp slt i32 %133, %134
  br i1 %135, label %136, label %149

136:                                              ; preds = %132
  %137 = load ptr, ptr %4, align 8
  %138 = load i32, ptr %7, align 4
  %139 = mul nsw i32 256, %138
  %140 = call ptr @Vec_WrdEntryP(ptr noundef %137, i32 noundef %139)
  %141 = load i32, ptr %8, align 4
  %142 = call i32 @Abc_TtGetBit(ptr noundef %140, i32 noundef %141)
  %143 = icmp ne i32 %142, 0
  %144 = select i1 %143, i32 42, i32 124
  %145 = call i32 (ptr, ...) @printf(ptr noundef @.str.47, i32 noundef %144)
  br label %146

146:                                              ; preds = %136
  %147 = load i32, ptr %7, align 4
  %148 = add nsw i32 %147, 1
  store i32 %148, ptr %7, align 4
  br label %132, !llvm.loop !90

149:                                              ; preds = %132
  %150 = call i32 (ptr, ...) @printf(ptr noundef @.str.27)
  br label %151

151:                                              ; preds = %149
  %152 = load i32, ptr %8, align 4
  %153 = add nsw i32 %152, 1
  store i32 %153, ptr %8, align 4
  br label %125, !llvm.loop !91

154:                                              ; preds = %125
  %155 = call i32 (ptr, ...) @printf(ptr noundef @.str.27)
  ret void
}