; Function Attrs: nofree nounwind uwtable
define void @Acb_PrintPatterns(ptr noundef readonly captures(none) %0, i32 noundef %1, ptr noundef readonly captures(none) %2) local_unnamed_addr #13 {
  %4 = getelementptr i8, ptr %2, i64 4
  %.val58 = load i32, ptr %4, align 4
  %.val58.fr = freeze i32 %.val58
  %5 = tail call i32 (ptr, ...) @printf(ptr noundef nonnull dereferenceable(1) @.str.40)
  %.val5763 = load i32, ptr %4, align 4
  %6 = icmp sgt i32 %.val5763, 0
  br i1 %6, label %.lr.ph, label %.critedge

.lr.ph:                                           ; preds = %3
  %7 = getelementptr i8, ptr %2, i64 8
  br label %8

8:                                                ; preds = %.lr.ph, %8
  %indvars.iv = phi i64 [ 0, %.lr.ph ], [ %indvars.iv.next, %8 ]
  %.val61 = load ptr, ptr %7, align 8
  %9 = getelementptr inbounds nuw i32, ptr %.val61, i64 %indvars.iv
  %10 = load i32, ptr %9, align 4
  %11 = sdiv i32 %10, 100
  %12 = srem i32 %11, 10
  %13 = tail call i32 (ptr, ...) @printf(ptr noundef nonnull dereferenceable(1) @.str.41, i32 noundef %12)
  %indvars.iv.next = add nuw nsw i64 %indvars.iv, 1
  %.val57 = load i32, ptr %4, align 4
  %14 = sext i32 %.val57 to i64
  %15 = icmp slt i64 %indvars.iv.next, %14
  br i1 %15, label %8, label %.critedge, !llvm.loop !83

.critedge:                                        ; preds = %8, %3
  %putchar = tail call i32 @putchar(i32 10)
  %16 = tail call i32 (ptr, ...) @printf(ptr noundef nonnull dereferenceable(1) @.str.40)
  %.val5665 = load i32, ptr %4, align 4
  %17 = icmp sgt i32 %.val5665, 0
  br i1 %17, label %.lr.ph67, label %.critedge2

.lr.ph67:                                         ; preds = %.critedge
  %18 = getelementptr i8, ptr %2, i64 8
  br label %19

19:                                               ; preds = %.lr.ph67, %19
  %indvars.iv91 = phi i64 [ 0, %.lr.ph67 ], [ %indvars.iv.next92, %19 ]
  %.val60 = load ptr, ptr %18, align 8
  %20 = getelementptr inbounds nuw i32, ptr %.val60, i64 %indvars.iv91
  %21 = load i32, ptr %20, align 4
  %22 = sdiv i32 %21, 10
  %23 = srem i32 %22, 10
  %24 = tail call i32 (ptr, ...) @printf(ptr noundef nonnull dereferenceable(1) @.str.41, i32 noundef %23)
  %indvars.iv.next92 = add nuw nsw i64 %indvars.iv91, 1
  %.val56 = load i32, ptr %4, align 4
  %25 = sext i32 %.val56 to i64
  %26 = icmp slt i64 %indvars.iv.next92, %25
  br i1 %26, label %19, label %.critedge2, !llvm.loop !84

.critedge2:                                       ; preds = %19, %.critedge
  %putchar46 = tail call i32 @putchar(i32 10)
  %27 = tail call i32 (ptr, ...) @printf(ptr noundef nonnull dereferenceable(1) @.str.40)
  %.val68 = load i32, ptr %4, align 4
  %28 = icmp sgt i32 %.val68, 0
  br i1 %28, label %.lr.ph70, label %.critedge4

.lr.ph70:                                         ; preds = %.critedge2
  %29 = getelementptr i8, ptr %2, i64 8
  br label %30

30:                                               ; preds = %.lr.ph70, %30
  %indvars.iv94 = phi i64 [ 0, %.lr.ph70 ], [ %indvars.iv.next95, %30 ]
  %.val59 = load ptr, ptr %29, align 8
  %31 = getelementptr inbounds nuw i32, ptr %.val59, i64 %indvars.iv94
  %32 = load i32, ptr %31, align 4
  %33 = srem i32 %32, 10
  %34 = tail call i32 (ptr, ...) @printf(ptr noundef nonnull dereferenceable(1) @.str.41, i32 noundef %33)
  %indvars.iv.next95 = add nuw nsw i64 %indvars.iv94, 1
  %.val = load i32, ptr %4, align 4
  %35 = sext i32 %.val to i64
  %36 = icmp slt i64 %indvars.iv.next95, %35
  br i1 %36, label %30, label %.critedge4, !llvm.loop !85

.critedge4:                                       ; preds = %30, %.critedge2
  %putchar47 = tail call i32 @putchar(i32 10)
  %putchar48 = tail call i32 @putchar(i32 10)
  %37 = tail call i32 (ptr, ...) @printf(ptr noundef nonnull dereferenceable(1) @.str.40)
  %38 = icmp sgt i32 %.val58.fr, 0
  br i1 %38, label %.lr.ph72, label %._crit_edge76.critedge

.lr.ph72:                                         ; preds = %.critedge4, %.lr.ph72
  %.371 = phi i32 [ %42, %.lr.ph72 ], [ 0, %.critedge4 ]
  %39 = udiv i32 %.371, 100
  %40 = urem i32 %39, 10
  %41 = tail call i32 (ptr, ...) @printf(ptr noundef nonnull dereferenceable(1) @.str.41, i32 noundef %40)
  %42 = add nuw nsw i32 %.371, 1
  %exitcond.not = icmp eq i32 %42, %.val58.fr
  br i1 %exitcond.not, label %._crit_edge, label %.lr.ph72, !llvm.loop !86

._crit_edge:                                      ; preds = %.lr.ph72
  %putchar49 = tail call i32 @putchar(i32 10)
  %43 = tail call i32 (ptr, ...) @printf(ptr noundef nonnull dereferenceable(1) @.str.40)
  br label %.lr.ph75

.lr.ph75:                                         ; preds = %._crit_edge, %.lr.ph75
  %.473 = phi i32 [ %47, %.lr.ph75 ], [ 0, %._crit_edge ]
  %44 = udiv i32 %.473, 10
  %45 = urem i32 %44, 10
  %46 = tail call i32 (ptr, ...) @printf(ptr noundef nonnull dereferenceable(1) @.str.41, i32 noundef %45)
  %47 = add nuw nsw i32 %.473, 1
  %exitcond97.not = icmp eq i32 %47, %.val58.fr
  br i1 %exitcond97.not, label %._crit_edge76, label %.lr.ph75, !llvm.loop !87

._crit_edge76.critedge:                           ; preds = %.critedge4
  %putchar49.c = tail call i32 @putchar(i32 10)
  %48 = tail call i32 (ptr, ...) @printf(ptr noundef nonnull dereferenceable(1) @.str.40)
  br label %._crit_edge76

._crit_edge76:                                    ; preds = %.lr.ph75, %._crit_edge76.critedge
  %putchar50 = tail call i32 @putchar(i32 10)
  %49 = tail call i32 (ptr, ...) @printf(ptr noundef nonnull dereferenceable(1) @.str.40)
  br i1 %38, label %.lr.ph79, label %._crit_edge80

.lr.ph79:                                         ; preds = %._crit_edge76, %.lr.ph79
  %.577 = phi i32 [ %52, %.lr.ph79 ], [ 0, %._crit_edge76 ]
  %50 = urem i32 %.577, 10
  %51 = tail call i32 (ptr, ...) @printf(ptr noundef nonnull dereferenceable(1) @.str.41, i32 noundef %50)
  %52 = add nuw nsw i32 %.577, 1
  %exitcond98.not = icmp eq i32 %52, %.val58.fr
  br i1 %exitcond98.not, label %._crit_edge80, label %.lr.ph79, !llvm.loop !88

._crit_edge80:                                    ; preds = %.lr.ph79, %._crit_edge76
  %putchar51 = tail call i32 @putchar(i32 10)
  %putchar52 = tail call i32 @putchar(i32 10)
  %53 = icmp sgt i32 %1, 0
  br i1 %53, label %.lr.ph87, label %._crit_edge88

.lr.ph87:                                         ; preds = %._crit_edge80
  %54 = getelementptr i8, ptr %0, i64 8
  br i1 %38, label %.lr.ph83.us.preheader, label %.lr.ph87.split

.lr.ph83.us.preheader:                            ; preds = %.lr.ph87
  %wide.trip.count = zext nneg i32 %.val58.fr to i64
  br label %.lr.ph83.us

.lr.ph83.us:                                      ; preds = %.lr.ph83.us.preheader, %._crit_edge84.us
  %.04485.us = phi i32 [ %67, %._crit_edge84.us ], [ 0, %.lr.ph83.us.preheader ]
  %55 = tail call i32 (ptr, ...) @printf(ptr noundef nonnull dereferenceable(1) @.str.46, i32 noundef %.04485.us)
  %56 = lshr i32 %.04485.us, 6
  %57 = zext nneg i32 %56 to i64
  %58 = and i32 %.04485.us, 63
  %59 = zext nneg i32 %58 to i64
  %60 = shl nuw i64 1, %59
  br label %61

61:                                               ; preds = %.lr.ph83.us, %61
  %indvars.iv100 = phi i64 [ 0, %.lr.ph83.us ], [ %indvars.iv.next101, %61 ]
  %.val62.us = load ptr, ptr %54, align 8
  %.idx = shl nsw i64 %indvars.iv100, 11
  %62 = getelementptr inbounds nuw i8, ptr %.val62.us, i64 %.idx
  %63 = getelementptr inbounds nuw i64, ptr %62, i64 %57
  %64 = load i64, ptr %63, align 8
  %65 = and i64 %64, %60
  %.not.us = icmp eq i64 %65, 0
  %66 = select i1 %.not.us, i32 124, i32 42
  %putchar55.us = tail call i32 @putchar(i32 %66)
  %indvars.iv.next101 = add nuw nsw i64 %indvars.iv100, 1
  %exitcond103.not = icmp eq i64 %indvars.iv.next101, %wide.trip.count
  br i1 %exitcond103.not, label %._crit_edge84.us, label %61, !llvm.loop !89

._crit_edge84.us:                                 ; preds = %61
  %putchar54.us = tail call i32 @putchar(i32 10)
  %67 = add nuw nsw i32 %.04485.us, 1
  %exitcond104.not = icmp eq i32 %67, %1
  br i1 %exitcond104.not, label %._crit_edge88, label %.lr.ph83.us, !llvm.loop !90

.lr.ph87.split:                                   ; preds = %.lr.ph87, %.lr.ph87.split
  %.04485 = phi i32 [ %69, %.lr.ph87.split ], [ 0, %.lr.ph87 ]
  %68 = tail call i32 (ptr, ...) @printf(ptr noundef nonnull dereferenceable(1) @.str.46, i32 noundef %.04485)
  %putchar54 = tail call i32 @putchar(i32 10)
  %69 = add nuw nsw i32 %.04485, 1
  %exitcond99.not = icmp eq i32 %69, %1
  br i1 %exitcond99.not, label %._crit_edge88, label %.lr.ph87.split, !llvm.loop !90

._crit_edge88:                                    ; preds = %.lr.ph87.split, %._crit_edge84.us, %._crit_edge80
  %putchar53 = tail call i32 @putchar(i32 10)
  ret void
}